; ModuleID = '22/569.c'
source_filename = "22/569.c"
target datalayout = "e-m:e-p270:32:32-p271:32:32-p272:64:64-i64:64-f80:128-n8:16:32:64-S128"
target triple = "x86_64-pc-linux-gnu"

@.str = private unnamed_addr constant [3 x i8] c"No\00", align 1
@.str.1 = private unnamed_addr constant [3 x i8] c"%d\00", align 1

; Function Attrs: noinline nounwind uwtable
define dso_local void @main() #0 {
  %1 = alloca [300 x i8], align 16
  %2 = alloca [300 x i32], align 16
  %3 = alloca i32, align 4
  %4 = alloca i32, align 4
  %5 = alloca i32, align 4
  %6 = getelementptr inbounds [300 x i8], [300 x i8]* %1, i64 0, i64 0
  %7 = call i32 (i8*, ...) bitcast (i32 (...)* @gets to i32 (i8*, ...)*)(i8* %6)
  store i32 0, i32* %3, align 4
  store i32 0, i32* %4, align 4
  store i32 0, i32* %5, align 4
  store i32 0, i32* %4, align 4
  br label %8

8:                                                ; preds = %15, %0
  %9 = load i32, i32* %4, align 4
  %10 = icmp slt i32 %9, 300
  br i1 %10, label %11, label %18

11:                                               ; preds = %8
  %12 = load i32, i32* %4, align 4
  %13 = sext i32 %12 to i64
  %14 = getelementptr inbounds [300 x i32], [300 x i32]* %2, i64 0, i64 %13
  store i32 0, i32* %14, align 4
  br label %15

15:                                               ; preds = %11
  %16 = load i32, i32* %4, align 4
  %17 = add nsw i32 %16, 1
  store i32 %17, i32* %4, align 4
  br label %8

18:                                               ; preds = %8
  store i32 0, i32* %4, align 4
  br label %19

19:                                               ; preds = %52, %18
  %20 = load i32, i32* %4, align 4
  %21 = sext i32 %20 to i64
  %22 = getelementptr inbounds [300 x i8], [300 x i8]* %1, i64 0, i64 %21
  %23 = load i8, i8* %22, align 1
  %24 = sext i8 %23 to i32
  %25 = icmp ne i32 %24, 0
  br i1 %25, label %26, label %55

26:                                               ; preds = %19
  %27 = load i32, i32* %4, align 4
  %28 = sext i32 %27 to i64
  %29 = getelementptr inbounds [300 x i8], [300 x i8]* %1, i64 0, i64 %28
  %30 = load i8, i8* %29, align 1
  %31 = sext i8 %30 to i32
  %32 = icmp ne i32 %31, 44
  br i1 %32, label %33, label %49

33:                                               ; preds = %26
  %34 = load i32, i32* %3, align 4
  %35 = sext i32 %34 to i64
  %36 = getelementptr inbounds [300 x i32], [300 x i32]* %2, i64 0, i64 %35
  %37 = load i32, i32* %36, align 4
  %38 = mul nsw i32 %37, 10
  %39 = load i32, i32* %4, align 4
  %40 = sext i32 %39 to i64
  %41 = getelementptr inbounds [300 x i8], [300 x i8]* %1, i64 0, i64 %40
  %42 = load i8, i8* %41, align 1
  %43 = sext i8 %42 to i32
  %44 = add nsw i32 %38, %43
  %45 = sub nsw i32 %44, 48
  %46 = load i32, i32* %3, align 4
  %47 = sext i32 %46 to i64
  %48 = getelementptr inbounds [300 x i32], [300 x i32]* %2, i64 0, i64 %47
  store i32 %45, i32* %48, align 4
  br label %52

49:                                               ; preds = %26
  %50 = load i32, i32* %3, align 4
  %51 = add nsw i32 %50, 1
  store i32 %51, i32* %3, align 4
  br label %52

52:                                               ; preds = %49, %33
  %53 = load i32, i32* %4, align 4
  %54 = add nsw i32 %53, 1
  store i32 %54, i32* %4, align 4
  br label %19

55:                                               ; preds = %19
  store i32 0, i32* %4, align 4
  br label %56

56:                                               ; preds = %73, %55
  %57 = load i32, i32* %4, align 4
  %58 = load i32, i32* %3, align 4
  %59 = icmp sle i32 %57, %58
  br i1 %59, label %60, label %76

60:                                               ; preds = %56
  %61 = load i32, i32* %4, align 4
  %62 = sext i32 %61 to i64
  %63 = getelementptr inbounds [300 x i32], [300 x i32]* %2, i64 0, i64 %62
  %64 = load i32, i32* %63, align 4
  %65 = load i32, i32* %5, align 4
  %66 = icmp sgt i32 %64, %65
  br i1 %66, label %67, label %72

67:                                               ; preds = %60
  %68 = load i32, i32* %4, align 4
  %69 = sext i32 %68 to i64
  %70 = getelementptr inbounds [300 x i32], [300 x i32]* %2, i64 0, i64 %69
  %71 = load i32, i32* %70, align 4
  store i32 %71, i32* %5, align 4
  br label %72

72:                                               ; preds = %67, %60
  br label %73

73:                                               ; preds = %72
  %74 = load i32, i32* %4, align 4
  %75 = add nsw i32 %74, 1
  store i32 %75, i32* %4, align 4
  br label %56

76:                                               ; preds = %56
  store i32 0, i32* %4, align 4
  br label %77

77:                                               ; preds = %93, %76
  %78 = load i32, i32* %4, align 4
  %79 = load i32, i32* %3, align 4
  %80 = icmp sle i32 %78, %79
  br i1 %80, label %81, label %96

81:                                               ; preds = %77
  %82 = load i32, i32* %4, align 4
  %83 = sext i32 %82 to i64
  %84 = getelementptr inbounds [300 x i32], [300 x i32]* %2, i64 0, i64 %83
  %85 = load i32, i32* %84, align 4
  %86 = load i32, i32* %5, align 4
  %87 = icmp eq i32 %85, %86
  br i1 %87, label %88, label %92

88:                                               ; preds = %81
  %89 = load i32, i32* %4, align 4
  %90 = sext i32 %89 to i64
  %91 = getelementptr inbounds [300 x i32], [300 x i32]* %2, i64 0, i64 %90
  store i32 0, i32* %91, align 4
  br label %92

92:                                               ; preds = %88, %81
  br label %93

93:                                               ; preds = %92
  %94 = load i32, i32* %4, align 4
  %95 = add nsw i32 %94, 1
  store i32 %95, i32* %4, align 4
  br label %77

96:                                               ; preds = %77
  store i32 0, i32* %5, align 4
  store i32 0, i32* %4, align 4
  br label %97

97:                                               ; preds = %109, %96
  %98 = load i32, i32* %4, align 4
  %99 = load i32, i32* %3, align 4
  %100 = icmp sle i32 %98, %99
  br i1 %100, label %101, label %112

101:                                              ; preds = %97
  %102 = load i32, i32* %4, align 4
  %103 = sext i32 %102 to i64
  %104 = getelementptr inbounds [300 x i32], [300 x i32]* %2, i64 0, i64 %103
  %105 = load i32, i32* %104, align 4
  %106 = icmp ne i32 %105, 0
  br i1 %106, label %107, label %108

107:                                              ; preds = %101
  br label %112

108:                                              ; preds = %101
  br label %109

109:                                              ; preds = %108
  %110 = load i32, i32* %4, align 4
  %111 = add nsw i32 %110, 1
  store i32 %111, i32* %4, align 4
  br label %97

112:                                              ; preds = %107, %97
  %113 = load i32, i32* %4, align 4
  %114 = load i32, i32* %3, align 4
  %115 = icmp sgt i32 %113, %114
  br i1 %115, label %116, label %118

116:                                              ; preds = %112
  %117 = call i32 (i8*, ...) @printf(i8* getelementptr inbounds ([3 x i8], [3 x i8]* @.str, i64 0, i64 0))
  br label %142

118:                                              ; preds = %112
  store i32 0, i32* %4, align 4
  br label %119

119:                                              ; preds = %136, %118
  %120 = load i32, i32* %4, align 4
  %121 = load i32, i32* %3, align 4
  %122 = icmp sle i32 %120, %121
  br i1 %122, label %123, label %139

123:                                              ; preds = %119
  %124 = load i32, i32* %4, align 4
  %125 = sext i32 %124 to i64
  %126 = getelementptr inbounds [300 x i32], [300 x i32]* %2, i64 0, i64 %125
  %127 = load i32, i32* %126, align 4
  %128 = load i32, i32* %5, align 4
  %129 = icmp sgt i32 %127, %128
  br i1 %129, label %130, label %135

130:                                              ; preds = %123
  %131 = load i32, i32* %4, align 4
  %132 = sext i32 %131 to i64
  %133 = getelementptr inbounds [300 x i32], [300 x i32]* %2, i64 0, i64 %132
  %134 = load i32, i32* %133, align 4
  store i32 %134, i32* %5, align 4
  br label %135

135:                                              ; preds = %130, %123
  br label %136

136:                                              ; preds = %135
  %137 = load i32, i32* %4, align 4
  %138 = add nsw i32 %137, 1
  store i32 %138, i32* %4, align 4
  br label %119

139:                                              ; preds = %119
  %140 = load i32, i32* %5, align 4
  %141 = call i32 (i8*, ...) @printf(i8* getelementptr inbounds ([3 x i8], [3 x i8]* @.str.1, i64 0, i64 0), i32 %140)
  br label %142

142:                                              ; preds = %139, %116
  ret void
}

declare dso_local i32 @gets(...) #1

declare dso_local i32 @printf(i8*, ...) #1


!llvm.module.flags = !{!0}
!llvm.ident = !{!1}

!0 = !{i32 1, !"wchar_size", i32 4}
!1 = !{!"clang version 10.0.0-4ubuntu1 "}
